target datalayout = "e-m:e-p270:32:32-p271:32:32-p272:64:64-i64:64-i128:128-f80:128-n8:16:32:64-S128"
target triple = "x86_64-pc-linux-gnu"

%struct.Tuplestorestate = type { i32, i32, i8, i8, i8, i8, i64, i64, i64, i64, ptr, ptr, ptr, ptr, ptr, ptr, ptr, i32, i32, i32, i8, ptr, i32, i32, i32, i32, i64 }
%struct.TSReadPointer = type { i32, i8, i32, i32, i64 }

@.str.1 = private unnamed_addr constant [13 x i8] c"tuplestore.c\00", align 1
@.str.3 = private unnamed_addr constant [44 x i8] c"could not seek in tuplestore temporary file\00", align 1
@.str.4 = private unnamed_addr constant [25 x i8] c"invalid tuplestore state\00", align 1
@__func__.tuplestore_copy_read_pointer = private unnamed_addr constant [29 x i8] c"tuplestore_copy_read_pointer\00", align 1

; Function Attrs: nounwind uwtable
define dso_local void @tuplestore_copy_read_pointer(ptr noundef %0, i32 noundef %1, i32 noundef %2) #0 {
  %4 = alloca ptr, align 8
  %5 = alloca i32, align 4
  %6 = alloca i32, align 4
  %7 = alloca ptr, align 8
  %8 = alloca ptr, align 8
  %9 = alloca i32, align 4
  %10 = alloca i32, align 4
  %11 = alloca i32, align 4
  store ptr %0, ptr %4, align 8
  store i32 %1, ptr %5, align 4
  store i32 %2, ptr %6, align 4
  call void @llvm.lifetime.start.p0(i64 8, ptr %7) #7
  %12 = load ptr, ptr %4, align 8
  %13 = getelementptr inbounds nuw %struct.Tuplestorestate, ptr %12, i32 0, i32 21
  %14 = load ptr, ptr %13, align 8
  %15 = load i32, ptr %5, align 4
  %16 = sext i32 %15 to i64
  %17 = getelementptr inbounds %struct.TSReadPointer, ptr %14, i64 %16
  store ptr %17, ptr %7, align 8
  call void @llvm.lifetime.start.p0(i64 8, ptr %8) #7
  %18 = load ptr, ptr %4, align 8
  %19 = getelementptr inbounds nuw %struct.Tuplestorestate, ptr %18, i32 0, i32 21
  %20 = load ptr, ptr %19, align 8
  %21 = load i32, ptr %6, align 4
  %22 = sext i32 %21 to i64
  %23 = getelementptr inbounds %struct.TSReadPointer, ptr %20, i64 %22
  store ptr %23, ptr %8, align 8
  %24 = load i32, ptr %5, align 4
  %25 = load i32, ptr %6, align 4
  %26 = icmp eq i32 %24, %25
  br i1 %26, label %27, label %28

27:                                               ; preds = %3
  store i32 1, ptr %9, align 4
  br label %173

28:                                               ; preds = %3
  %29 = load ptr, ptr %8, align 8
  %30 = getelementptr inbounds nuw %struct.TSReadPointer, ptr %29, i32 0, i32 0
  %31 = load i32, ptr %30, align 8
  %32 = load ptr, ptr %7, align 8
  %33 = getelementptr inbounds nuw %struct.TSReadPointer, ptr %32, i32 0, i32 0
  %34 = load i32, ptr %33, align 8
  %35 = icmp ne i32 %31, %34
  br i1 %35, label %36, label %69

36:                                               ; preds = %28
  call void @llvm.lifetime.start.p0(i64 4, ptr %10) #7
  call void @llvm.lifetime.start.p0(i64 4, ptr %11) #7
  %37 = load ptr, ptr %8, align 8
  %38 = load ptr, ptr %7, align 8
  call void @llvm.memcpy.p0.p0.i64(ptr align 8 %37, ptr align 8 %38, i64 24, i1 false)
  %39 = load ptr, ptr %4, align 8
  %40 = getelementptr inbounds nuw %struct.Tuplestorestate, ptr %39, i32 0, i32 21
  %41 = load ptr, ptr %40, align 8
  %42 = getelementptr inbounds %struct.TSReadPointer, ptr %41, i64 0
  %43 = getelementptr inbounds nuw %struct.TSReadPointer, ptr %42, i32 0, i32 0
  %44 = load i32, ptr %43, align 8
  store i32 %44, ptr %10, align 4
  store i32 1, ptr %11, align 4
  br label %45

45:                                               ; preds = %62, %36
  %46 = load i32, ptr %11, align 4
  %47 = load ptr, ptr %4, align 8
  %48 = getelementptr inbounds nuw %struct.Tuplestorestate, ptr %47, i32 0, i32 23
  %49 = load i32, ptr %48, align 4
  %50 = icmp slt i32 %46, %49
  br i1 %50, label %51, label %65

51:                                               ; preds = %45
  %52 = load ptr, ptr %4, align 8
  %53 = getelementptr inbounds nuw %struct.Tuplestorestate, ptr %52, i32 0, i32 21
  %54 = load ptr, ptr %53, align 8
  %55 = load i32, ptr %11, align 4
  %56 = sext i32 %55 to i64
  %57 = getelementptr inbounds %struct.TSReadPointer, ptr %54, i64 %56
  %58 = getelementptr inbounds nuw %struct.TSReadPointer, ptr %57, i32 0, i32 0
  %59 = load i32, ptr %58, align 8
  %60 = load i32, ptr %10, align 4
  %61 = or i32 %60, %59
  store i32 %61, ptr %10, align 4
  br label %62

62:                                               ; preds = %51
  %63 = load i32, ptr %11, align 4
  %64 = add i32 %63, 1
  store i32 %64, ptr %11, align 4
  br label %45, !llvm.loop !13

65:                                               ; preds = %45
  %66 = load i32, ptr %10, align 4
  %67 = load ptr, ptr %4, align 8
  %68 = getelementptr inbounds nuw %struct.Tuplestorestate, ptr %67, i32 0, i32 1
  store i32 %66, ptr %68, align 4
  call void @llvm.lifetime.end.p0(i64 4, ptr %11) #7
  call void @llvm.lifetime.end.p0(i64 4, ptr %10) #7
  br label %72

69:                                               ; preds = %28
  %70 = load ptr, ptr %8, align 8
  %71 = load ptr, ptr %7, align 8
  call void @llvm.memcpy.p0.p0.i64(ptr align 8 %70, ptr align 8 %71, i64 24, i1 false)
  br label %72

72:                                               ; preds = %69, %65
  %73 = load ptr, ptr %4, align 8
  %74 = getelementptr inbounds nuw %struct.Tuplestorestate, ptr %73, i32 0, i32 0
  %75 = load i32, ptr %74, align 8
  switch i32 %75, label %161 [
    i32 0, label %76
    i32 1, label %76
    i32 2, label %77
  ]

76:                                               ; preds = %72, %72
  br label %172

77:                                               ; preds = %72
  %78 = load i32, ptr %6, align 4
  %79 = load ptr, ptr %4, align 8
  %80 = getelementptr inbounds nuw %struct.Tuplestorestate, ptr %79, i32 0, i32 22
  %81 = load i32, ptr %80, align 8
  %82 = icmp eq i32 %78, %81
  br i1 %82, label %83, label %139

83:                                               ; preds = %77
  %84 = load ptr, ptr %8, align 8
  %85 = getelementptr inbounds nuw %struct.TSReadPointer, ptr %84, i32 0, i32 1
  %86 = load i8, ptr %85, align 4, !range !4, !noundef !5
  %87 = trunc i8 %86 to i1
  br i1 %87, label %88, label %113

88:                                               ; preds = %83
  %89 = load ptr, ptr %4, align 8
  %90 = getelementptr inbounds nuw %struct.Tuplestorestate, ptr %89, i32 0, i32 10
  %91 = load ptr, ptr %90, align 8
  %92 = load ptr, ptr %4, align 8
  %93 = getelementptr inbounds nuw %struct.Tuplestorestate, ptr %92, i32 0, i32 25
  %94 = load i32, ptr %93, align 4
  %95 = load ptr, ptr %4, align 8
  %96 = getelementptr inbounds nuw %struct.Tuplestorestate, ptr %95, i32 0, i32 26
  %97 = load i64, ptr %96, align 8
  %98 = call i32 @BufFileSeek(ptr noundef %91, i32 noundef %94, i64 noundef %97, i32 noundef 0)
  %99 = icmp ne i32 %98, 0
  br i1 %99, label %100, label %112

100:                                              ; preds = %88
  br label %101

101:                                              ; preds = %100
  br i1 true, label %102, label %104

102:                                              ; preds = %101
  %103 = call zeroext i1 @errstart_cold(i32 noundef 21, ptr noundef null) #8
  br i1 %103, label %106, label %109

104:                                              ; preds = %101
  %105 = call zeroext i1 @errstart(i32 noundef 21, ptr noundef null)
  br i1 %105, label %106, label %109

106:                                              ; preds = %104, %102
  %107 = call i32 @errcode_for_file_access()
  %108 = call i32 (ptr, ...) @errmsg(ptr noundef @.str.3)
  call void @errfinish(ptr noundef @.str.1, i32 noundef 1373, ptr noundef @__func__.tuplestore_copy_read_pointer)
  br label %109

109:                                              ; preds = %106, %104, %102
  unreachable

110:                                              ; No predecessors!
  br label %111

111:                                              ; preds = %110
  br label %112

112:                                              ; preds = %111, %88
  br label %138

113:                                              ; preds = %83
  %114 = load ptr, ptr %4, align 8
  %115 = getelementptr inbounds nuw %struct.Tuplestorestate, ptr %114, i32 0, i32 10
  %116 = load ptr, ptr %115, align 8
  %117 = load ptr, ptr %8, align 8
  %118 = getelementptr inbounds nuw %struct.TSReadPointer, ptr %117, i32 0, i32 3
  %119 = load i32, ptr %118, align 4
  %120 = load ptr, ptr %8, align 8
  %121 = getelementptr inbounds nuw %struct.TSReadPointer, ptr %120, i32 0, i32 4
  %122 = load i64, ptr %121, align 8
  %123 = call i32 @BufFileSeek(ptr noundef %116, i32 noundef %119, i64 noundef %122, i32 noundef 0)
  %124 = icmp ne i32 %123, 0
  br i1 %124, label %125, label %137

125:                                              ; preds = %113
  br label %126

126:                                              ; preds = %125
  br i1 true, label %127, label %129

127:                                              ; preds = %126
  %128 = call zeroext i1 @errstart_cold(i32 noundef 21, ptr noundef null) #8
  br i1 %128, label %131, label %134

129:                                              ; preds = %126
  %130 = call zeroext i1 @errstart(i32 noundef 21, ptr noundef null)
  br i1 %130, label %131, label %134

131:                                              ; preds = %129, %127
  %132 = call i32 @errcode_for_file_access()
  %133 = call i32 (ptr, ...) @errmsg(ptr noundef @.str.3)
  call void @errfinish(ptr noundef @.str.1, i32 noundef 1382, ptr noundef @__func__.tuplestore_copy_read_pointer)
  br label %134

134:                                              ; preds = %131, %129, %127
  unreachable

135:                                              ; No predecessors!
  br label %136

136:                                              ; preds = %135
  br label %137

137:                                              ; preds = %136, %113
  br label %138

138:                                              ; preds = %137, %112
  br label %160

139:                                              ; preds = %77
  %140 = load i32, ptr %5, align 4
  %141 = load ptr, ptr %4, align 8
  %142 = getelementptr inbounds nuw %struct.Tuplestorestate, ptr %141, i32 0, i32 22
  %143 = load i32, ptr %142, align 8
  %144 = icmp eq i32 %140, %143
  br i1 %144, label %145, label %159

145:                                              ; preds = %139
  %146 = load ptr, ptr %8, align 8
  %147 = getelementptr inbounds nuw %struct.TSReadPointer, ptr %146, i32 0, i32 1
  %148 = load i8, ptr %147, align 4, !range !4, !noundef !5
  %149 = trunc i8 %148 to i1
  br i1 %149, label %158, label %150

150:                                              ; preds = %145
  %151 = load ptr, ptr %4, align 8
  %152 = getelementptr inbounds nuw %struct.Tuplestorestate, ptr %151, i32 0, i32 10
  %153 = load ptr, ptr %152, align 8
  %154 = load ptr, ptr %8, align 8
  %155 = getelementptr inbounds nuw %struct.TSReadPointer, ptr %154, i32 0, i32 3
  %156 = load ptr, ptr %8, align 8
  %157 = getelementptr inbounds nuw %struct.TSReadPointer, ptr %156, i32 0, i32 4
  call void @BufFileTell(ptr noundef %153, ptr noundef %155, ptr noundef %157)
  br label %158

158:                                              ; preds = %150, %145
  br label %159

159:                                              ; preds = %158, %139
  br label %160

160:                                              ; preds = %159, %138
  br label %172

161:                                              ; preds = %72
  br label %162

162:                                              ; preds = %161
  br i1 true, label %163, label %165

163:                                              ; preds = %162
  %164 = call zeroext i1 @errstart_cold(i32 noundef 21, ptr noundef null) #8
  br i1 %164, label %167, label %169

165:                                              ; preds = %162
  %166 = call zeroext i1 @errstart(i32 noundef 21, ptr noundef null)
  br i1 %166, label %167, label %169

167:                                              ; preds = %165, %163
  %168 = call i32 (ptr, ...) @errmsg_internal(ptr noundef @.str.4)
  call void @errfinish(ptr noundef @.str.1, i32 noundef 1394, ptr noundef @__func__.tuplestore_copy_read_pointer)
  br label %169

169:                                              ; preds = %167, %165, %163
  unreachable

170:                                              ; No predecessors!
  br label %171

171:                                              ; preds = %170
  br label %172

172:                                              ; preds = %171, %160, %76
  store i32 0, ptr %9, align 4
  br label %173

173:                                              ; preds = %172, %27
  call void @llvm.lifetime.end.p0(i64 8, ptr %8) #7
  call void @llvm.lifetime.end.p0(i64 8, ptr %7) #7
  %174 = load i32, ptr %9, align 4
  switch i32 %174, label %176 [
    i32 0, label %175
    i32 1, label %175
  ]

175:                                              ; preds = %173, %173
  ret void

176:                                              ; preds = %173
  unreachable
}