; Function Attrs: nounwind uwtable
define dso_local void @tuplestore_copy_read_pointer(ptr noundef captures(none) %0, i32 noundef %1, i32 noundef %2) local_unnamed_addr #0 {
  %4 = getelementptr inbounds nuw i8, ptr %0, i64 120
  %5 = load ptr, ptr %4, align 8
  %6 = sext i32 %2 to i64
  %7 = getelementptr inbounds %struct.TSReadPointer, ptr %5, i64 %6
  %8 = icmp eq i32 %1, %2
  br i1 %8, label %70, label %9

9:                                                ; preds = %3
  %10 = sext i32 %1 to i64
  %11 = getelementptr inbounds %struct.TSReadPointer, ptr %5, i64 %10
  %12 = load i32, ptr %7, align 8
  %13 = load i32, ptr %11, align 8
  %.not = icmp eq i32 %12, %13
  tail call void @llvm.memcpy.p0.p0.i64(ptr noundef nonnull align 8 dereferenceable(24) %7, ptr noundef nonnull align 8 dereferenceable(24) %11, i64 24, i1 false)
  br i1 %.not, label %24, label %14

14:                                               ; preds = %9
  %15 = load ptr, ptr %4, align 8
  %16 = load i32, ptr %15, align 8
  %17 = getelementptr inbounds nuw i8, ptr %0, i64 132
  %18 = load i32, ptr %17, align 4
  %19 = icmp sgt i32 %18, 1
  br i1 %19, label %.lr.ph.preheader, label %._crit_edge

.lr.ph.preheader:                                 ; preds = %14
  %wide.trip.count = zext nneg i32 %18 to i64
  br label %.lr.ph

.lr.ph:                                           ; preds = %.lr.ph.preheader, %.lr.ph
  %indvars.iv = phi i64 [ 1, %.lr.ph.preheader ], [ %indvars.iv.next, %.lr.ph ]
  %.03642 = phi i32 [ %16, %.lr.ph.preheader ], [ %22, %.lr.ph ]
  %20 = getelementptr inbounds nuw %struct.TSReadPointer, ptr %15, i64 %indvars.iv
  %21 = load i32, ptr %20, align 8
  %22 = or i32 %21, %.03642
  %indvars.iv.next = add nuw nsw i64 %indvars.iv, 1
  %exitcond.not = icmp eq i64 %indvars.iv.next, %wide.trip.count
  br i1 %exitcond.not, label %._crit_edge, label %.lr.ph, !llvm.loop !15

._crit_edge:                                      ; preds = %.lr.ph, %14
  %.036.lcssa = phi i32 [ %16, %14 ], [ %22, %.lr.ph ]
  %23 = getelementptr inbounds nuw i8, ptr %0, i64 4
  store i32 %.036.lcssa, ptr %23, align 4
  br label %24

24:                                               ; preds = %9, %._crit_edge
  %25 = load i32, ptr %0, align 8
  switch i32 %25, label %67 [
    i32 0, label %70
    i32 1, label %70
    i32 2, label %26
  ]

26:                                               ; preds = %24
  %27 = getelementptr inbounds nuw i8, ptr %0, i64 128
  %28 = load i32, ptr %27, align 8
  %29 = icmp eq i32 %2, %28
  br i1 %29, label %30, label %56

30:                                               ; preds = %26
  %31 = getelementptr inbounds nuw i8, ptr %7, i64 4
  %32 = load i8, ptr %31, align 4, !range !4, !noundef !5
  %33 = trunc nuw i8 %32 to i1
  %34 = getelementptr inbounds nuw i8, ptr %0, i64 48
  %35 = load ptr, ptr %34, align 8
  br i1 %33, label %36, label %46

36:                                               ; preds = %30
  %37 = getelementptr inbounds nuw i8, ptr %0, i64 140
  %38 = load i32, ptr %37, align 4
  %39 = getelementptr inbounds nuw i8, ptr %0, i64 144
  %40 = load i64, ptr %39, align 8
  %41 = tail call i32 @BufFileSeek(ptr noundef %35, i32 noundef %38, i64 noundef %40, i32 noundef 0) #9
  %.not41 = icmp eq i32 %41, 0
  br i1 %.not41, label %70, label %42

42:                                               ; preds = %36
  %43 = tail call zeroext i1 @errstart_cold(i32 noundef 21, ptr noundef null) #10
  tail call void @llvm.assume(i1 %43)
  %44 = tail call i32 @errcode_for_file_access() #9
  %45 = tail call i32 (ptr, ...) @errmsg(ptr noundef nonnull @.str.3) #9
  tail call void @errfinish(ptr noundef nonnull @.str.1, i32 noundef 1373, ptr noundef nonnull @__func__.tuplestore_copy_read_pointer) #9
  unreachable

46:                                               ; preds = %30
  %47 = getelementptr inbounds nuw i8, ptr %7, i64 12
  %48 = load i32, ptr %47, align 4
  %49 = getelementptr inbounds nuw i8, ptr %7, i64 16
  %50 = load i64, ptr %49, align 8
  %51 = tail call i32 @BufFileSeek(ptr noundef %35, i32 noundef %48, i64 noundef %50, i32 noundef 0) #9
  %.not40 = icmp eq i32 %51, 0
  br i1 %.not40, label %70, label %52

52:                                               ; preds = %46
  %53 = tail call zeroext i1 @errstart_cold(i32 noundef 21, ptr noundef null) #10
  tail call void @llvm.assume(i1 %53)
  %54 = tail call i32 @errcode_for_file_access() #9
  %55 = tail call i32 (ptr, ...) @errmsg(ptr noundef nonnull @.str.3) #9
  tail call void @errfinish(ptr noundef nonnull @.str.1, i32 noundef 1382, ptr noundef nonnull @__func__.tuplestore_copy_read_pointer) #9
  unreachable

56:                                               ; preds = %26
  %57 = icmp eq i32 %1, %28
  br i1 %57, label %58, label %70

58:                                               ; preds = %56
  %59 = getelementptr inbounds nuw i8, ptr %7, i64 4
  %60 = load i8, ptr %59, align 4, !range !4, !noundef !5
  %61 = trunc nuw i8 %60 to i1
  br i1 %61, label %70, label %62

62:                                               ; preds = %58
  %63 = getelementptr inbounds nuw i8, ptr %0, i64 48
  %64 = load ptr, ptr %63, align 8
  %65 = getelementptr inbounds nuw i8, ptr %7, i64 12
  %66 = getelementptr inbounds nuw i8, ptr %7, i64 16
  tail call void @BufFileTell(ptr noundef %64, ptr noundef nonnull %65, ptr noundef nonnull %66) #9
  br label %70

67:                                               ; preds = %24
  %68 = tail call zeroext i1 @errstart_cold(i32 noundef 21, ptr noundef null) #10
  tail call void @llvm.assume(i1 %68)
  %69 = tail call i32 (ptr, ...) @errmsg_internal(ptr noundef nonnull @.str.4) #9
  tail call void @errfinish(ptr noundef nonnull @.str.1, i32 noundef 1394, ptr noundef nonnull @__func__.tuplestore_copy_read_pointer) #9
  unreachable

70:                                               ; preds = %24, %24, %56, %62, %58, %36, %46, %3
  ret void
}